target datalayout = "e-m:e-p270:32:32-p271:32:32-p272:64:64-i64:64-i128:128-f80:128-n8:16:32:64-S128"
target triple = "x86_64-unknown-linux-gnu"

%struct.AddressSpace = type { %struct.rcu_head, ptr, ptr, ptr, i32, i32, ptr, %union.anon.0, %union.anon.1 }
%struct.rcu_head = type { ptr, ptr }
%union.anon.0 = type { %struct.QTailQLink }
%struct.QTailQLink = type { ptr, ptr }
%union.anon.1 = type { %struct.QTailQLink }
%struct.SDHCIState = type { %union.anon, %struct.SDBus, %struct.MemoryRegion, %struct.AddressSpace, ptr, ptr, ptr, ptr, ptr, ptr, i32, i16, i16, i32, i16, i16, [4 x i32], i32, i8, i8, i8, i8, i16, i8, i8, i16, i16, i16, i16, i16, i16, i16, i16, i64, i16, i64, i64, i16, ptr, i32, i16, i8, i8, i8, i32, i8, i8, i8, i8 }
%union.anon = type { %struct.PCIDevice }
%struct.PCIDevice = type { %struct.DeviceState, i8, i8, ptr, ptr, ptr, ptr, ptr, i32, %struct.PCIReqIDCache, [64 x i8], [7 x %struct.PCIIORegion], %struct.AddressSpace, %struct.MemoryRegion, %struct.MemoryRegion, ptr, ptr, [3 x ptr], i8, i8, i32, i8, i32, ptr, ptr, ptr, ptr, ptr, ptr, %struct.MemoryRegion, %struct.MemoryRegion, %struct.MemoryRegion, ptr, i8, i32, i8, %struct.PCIExpressDevice, ptr, ptr, i32, i8, %struct.MemoryRegion, i32, ptr, ptr, ptr, ptr, ptr, i32 }
%struct.DeviceState = type { %struct.Object, ptr, ptr, i8, i8, i64, ptr, i32, i8, ptr, %struct.NamedGPIOListHead, %struct.NamedClockListHead, %struct.BusStateHead, i32, i32, i32, %struct.ResettableState, ptr, %struct.MemReentrancyGuard }
%struct.Object = type { ptr, ptr, ptr, i32, ptr }
%struct.NamedGPIOListHead = type { ptr }
%struct.NamedClockListHead = type { ptr }
%struct.BusStateHead = type { ptr }
%struct.ResettableState = type { i32, i8, i8 }
%struct.MemReentrancyGuard = type { i8 }
%struct.PCIReqIDCache = type { ptr, i32 }
%struct.PCIIORegion = type { i64, i64, i8, ptr, ptr }
%struct.PCIExpressDevice = type { i8, i8, i8, i16, %struct.PCIEAERLog, i16, i16, i16, %struct.PCIESriovPF, %struct.PCIESriovVF }
%struct.PCIEAERLog = type { i16, i16, ptr }
%struct.PCIESriovPF = type { i16, [7 x i8], ptr, ptr }
%struct.PCIESriovVF = type { ptr, i16 }
%struct.SDBus = type { %struct.BusState }
%struct.BusState = type { %struct.Object, ptr, ptr, ptr, i32, i8, i8, i32, %union.BusChildHead, %struct.BusStateEntry, %struct.ResettableState }
%union.BusChildHead = type { %struct.QTailQLink }
%struct.BusStateEntry = type { ptr, ptr }
%struct.MemoryRegion = type { %struct.Object, i8, i8, i8, i8, i8, i8, i8, i8, i8, i8, ptr, ptr, ptr, ptr, ptr, ptr, i32, i128, i64, ptr, i64, i8, i8, i8, i8, i8, ptr, i64, i32, %union.anon.2, %union.anon.3, %union.anon.4, ptr, i32, ptr, ptr, i8 }
%union.anon.2 = type { %struct.QTailQLink }
%union.anon.3 = type { %struct.QTailQLink }
%union.anon.4 = type { %struct.QTailQLink }

; Function Attrs: nounwind sspstrong uwtable
define internal zeroext i8 @sdhci_slotint(ptr noundef %s) #0 {
entry:
  %s.addr = alloca ptr, align 8
  store ptr %s, ptr %s.addr, align 8
  %0 = load ptr, ptr %s.addr, align 8
  %norintsts = getelementptr inbounds %struct.SDHCIState, ptr %0, i32 0, i32 25
  %1 = load i16, ptr %norintsts, align 4
  %conv = zext i16 %1 to i32
  %2 = load ptr, ptr %s.addr, align 8
  %norintsigen = getelementptr inbounds %struct.SDHCIState, ptr %2, i32 0, i32 29
  %3 = load i16, ptr %norintsigen, align 4
  %conv1 = zext i16 %3 to i32
  %and = and i32 %conv, %conv1
  %tobool = icmp ne i32 %and, 0
  br i1 %tobool, label %lor.end, label %lor.lhs.false

lor.lhs.false:                                    ; preds = %entry
  %4 = load ptr, ptr %s.addr, align 8
  %errintsts = getelementptr inbounds %struct.SDHCIState, ptr %4, i32 0, i32 26
  %5 = load i16, ptr %errintsts, align 2
  %conv2 = zext i16 %5 to i32
  %6 = load ptr, ptr %s.addr, align 8
  %errintsigen = getelementptr inbounds %struct.SDHCIState, ptr %6, i32 0, i32 30
  %7 = load i16, ptr %errintsigen, align 2
  %conv3 = zext i16 %7 to i32
  %and4 = and i32 %conv2, %conv3
  %tobool5 = icmp ne i32 %and4, 0
  br i1 %tobool5, label %lor.end, label %lor.lhs.false6

lor.lhs.false6:                                   ; preds = %lor.lhs.false
  %8 = load ptr, ptr %s.addr, align 8
  %norintsts7 = getelementptr inbounds %struct.SDHCIState, ptr %8, i32 0, i32 25
  %9 = load i16, ptr %norintsts7, align 4
  %conv8 = zext i16 %9 to i32
  %and9 = and i32 %conv8, 64
  %tobool10 = icmp ne i32 %and9, 0
  br i1 %tobool10, label %land.lhs.true, label %lor.rhs

land.lhs.true:                                    ; preds = %lor.lhs.false6
  %10 = load ptr, ptr %s.addr, align 8
  %wakcon = getelementptr inbounds %struct.SDHCIState, ptr %10, i32 0, i32 21
  %11 = load i8, ptr %wakcon, align 1
  %conv11 = zext i8 %11 to i32
  %and12 = and i32 %conv11, 2
  %tobool13 = icmp ne i32 %and12, 0
  br i1 %tobool13, label %lor.end, label %lor.rhs

lor.rhs:                                          ; preds = %land.lhs.true, %lor.lhs.false6
  %12 = load ptr, ptr %s.addr, align 8
  %norintsts14 = getelementptr inbounds %struct.SDHCIState, ptr %12, i32 0, i32 25
  %13 = load i16, ptr %norintsts14, align 4
  %conv15 = zext i16 %13 to i32
  %and16 = and i32 %conv15, 128
  %tobool17 = icmp ne i32 %and16, 0
  br i1 %tobool17, label %land.rhs, label %land.end

land.rhs:                                         ; preds = %lor.rhs
  %14 = load ptr, ptr %s.addr, align 8
  %wakcon18 = getelementptr inbounds %struct.SDHCIState, ptr %14, i32 0, i32 21
  %15 = load i8, ptr %wakcon18, align 1
  %conv19 = zext i8 %15 to i32
  %and20 = and i32 %conv19, 4
  %tobool21 = icmp ne i32 %and20, 0
  br label %land.end

land.end:                                         ; preds = %land.rhs, %lor.rhs
  %16 = phi i1 [ false, %lor.rhs ], [ %tobool21, %land.rhs ]
  br label %lor.end

lor.end:                                          ; preds = %land.end, %land.lhs.true, %lor.lhs.false, %entry
  %17 = phi i1 [ true, %land.lhs.true ], [ true, %lor.lhs.false ], [ true, %entry ], [ %16, %land.end ]
  %lor.ext = zext i1 %17 to i32
  %conv22 = trunc i32 %lor.ext to i8
  ret i8 %conv22
}

; Function Attrs: nounwind sspstrong uwtable
define internal zeroext i1 @sdhci_update_irq(ptr noundef %s) #0 {
entry:
  %s.addr = alloca ptr, align 8
  %pending = alloca i8, align 1
  store ptr %s, ptr %s.addr, align 8
  %0 = load ptr, ptr %s.addr, align 8
  %call = call zeroext i8 @sdhci_slotint(ptr noundef %0)
  %tobool = icmp ne i8 %call, 0
  %frombool = zext i1 %tobool to i8
  store i8 %frombool, ptr %pending, align 1
  %1 = load ptr, ptr %s.addr, align 8
  %irq = getelementptr inbounds %struct.SDHCIState, ptr %1, i32 0, i32 9
  %2 = load ptr, ptr %irq, align 16
  %3 = load i8, ptr %pending, align 1
  %tobool1 = trunc i8 %3 to i1
  %conv = zext i1 %tobool1 to i32
  call void @qemu_set_irq(ptr noundef %2, i32 noundef %conv)
  %4 = load i8, ptr %pending, align 1
  %tobool2 = trunc i8 %4 to i1
  ret i1 %tobool2
}

; Function Attrs: nounwind sspstrong uwtable
define internal void @sdhci_raise_insertion_irq(ptr noundef %opaque) #0 {
entry:
  %opaque.addr = alloca ptr, align 8
  %s = alloca ptr, align 8
  store ptr %opaque, ptr %opaque.addr, align 8
  %0 = load ptr, ptr %opaque.addr, align 8
  store ptr %0, ptr %s, align 8
  %1 = load ptr, ptr %s, align 8
  %norintsts = getelementptr inbounds %struct.SDHCIState, ptr %1, i32 0, i32 25
  %2 = load i16, ptr %norintsts, align 4
  %conv = zext i16 %2 to i32
  %and = and i32 %conv, 128
  %tobool = icmp ne i32 %and, 0
  br i1 %tobool, label %if.then, label %if.else

if.then:                                          ; preds = %entry
  %3 = load ptr, ptr %s, align 8
  %insert_timer = getelementptr inbounds %struct.SDHCIState, ptr %3, i32 0, i32 7
  %4 = load ptr, ptr %insert_timer, align 16
  %call = call i64 @qemu_clock_get_ns(i32 noundef 1)
  %add = add i64 %call, 1000000000
  call void @timer_mod(ptr noundef %4, i64 noundef %add)
  br label %if.end9

if.else:                                          ; preds = %entry
  %5 = load ptr, ptr %s, align 8
  %prnsts = getelementptr inbounds %struct.SDHCIState, ptr %5, i32 0, i32 17
  store i32 33488896, ptr %prnsts, align 8
  %6 = load ptr, ptr %s, align 8
  %norintstsen = getelementptr inbounds %struct.SDHCIState, ptr %6, i32 0, i32 27
  %7 = load i16, ptr %norintstsen, align 8
  %conv1 = zext i16 %7 to i32
  %and2 = and i32 %conv1, 64
  %tobool3 = icmp ne i32 %and2, 0
  br i1 %tobool3, label %if.then4, label %if.end

if.then4:                                         ; preds = %if.else
  %8 = load ptr, ptr %s, align 8
  %norintsts5 = getelementptr inbounds %struct.SDHCIState, ptr %8, i32 0, i32 25
  %9 = load i16, ptr %norintsts5, align 4
  %conv6 = zext i16 %9 to i32
  %or = or i32 %conv6, 64
  %conv7 = trunc i32 %or to i16
  store i16 %conv7, ptr %norintsts5, align 4
  br label %if.end

if.end:                                           ; preds = %if.then4, %if.else
  %10 = load ptr, ptr %s, align 8
  %call8 = call zeroext i1 @sdhci_update_irq(ptr noundef %10)
  br label %if.end9

if.end9:                                          ; preds = %if.end, %if.then
  ret void
}