; Function Attrs: nounwind sspstrong uwtable
define internal void @sdhci_raise_insertion_irq(ptr noundef captures(none) %opaque) #0 {
entry:
  %norintsts = getelementptr inbounds nuw i8, ptr %opaque, i64 3188
  %0 = load i16, ptr %norintsts, align 4
  %1 = and i16 %0, 128
  %tobool.not = icmp eq i16 %1, 0
  br i1 %tobool.not, label %if.else, label %if.then

if.then:                                          ; preds = %entry
  %insert_timer = getelementptr inbounds nuw i8, ptr %opaque, i64 3120
  %2 = load ptr, ptr %insert_timer, align 16
  %call = tail call i64 @qemu_clock_get_ns(i32 noundef 1) #12
  %add = add i64 %call, 1000000000
  tail call void @timer_mod(ptr noundef %2, i64 noundef %add) #12
  br label %if.end9

if.else:                                          ; preds = %entry
  %prnsts = getelementptr inbounds nuw i8, ptr %opaque, i64 3176
  store i32 33488896, ptr %prnsts, align 8
  %norintstsen = getelementptr inbounds nuw i8, ptr %opaque, i64 3192
  %3 = load i16, ptr %norintstsen, align 8
  %4 = and i16 %3, 64
  %tobool3.not = icmp eq i16 %4, 0
  br i1 %tobool3.not, label %if.end, label %if.then4

if.then4:                                         ; preds = %if.else
  %5 = or i16 %0, 64
  store i16 %5, ptr %norintsts, align 4
  br label %if.end

if.end:                                           ; preds = %if.then4, %if.else
  %6 = phi i16 [ %5, %if.then4 ], [ %0, %if.else ]
  %norintsigen.i.i = getelementptr inbounds nuw i8, ptr %opaque, i64 3196
  %7 = load i16, ptr %norintsigen.i.i, align 4
  %and8.i.i = and i16 %7, %6
  %tobool.not.i.i = icmp eq i16 %and8.i.i, 0
  br i1 %tobool.not.i.i, label %lor.lhs.false.i.i, label %sdhci_update_irq.exit

lor.lhs.false.i.i:                                ; preds = %if.end
  %errintsts.i.i = getelementptr inbounds nuw i8, ptr %opaque, i64 3190
  %8 = load i16, ptr %errintsts.i.i, align 2
  %errintsigen.i.i = getelementptr inbounds nuw i8, ptr %opaque, i64 3198
  %9 = load i16, ptr %errintsigen.i.i, align 2
  %and49.i.i = and i16 %9, %8
  %tobool5.not.i.i = icmp eq i16 %and49.i.i, 0
  br i1 %tobool5.not.i.i, label %lor.lhs.false6.i.i, label %sdhci_update_irq.exit

lor.lhs.false6.i.i:                               ; preds = %lor.lhs.false.i.i
  %10 = and i16 %6, 64
  %tobool10.not.i.i = icmp eq i16 %10, 0
  br i1 %tobool10.not.i.i, label %lor.rhs.i.i, label %land.lhs.true.i.i

land.lhs.true.i.i:                                ; preds = %lor.lhs.false6.i.i
  %wakcon.i.i = getelementptr inbounds nuw i8, ptr %opaque, i64 3183
  %11 = load i8, ptr %wakcon.i.i, align 1
  %12 = and i8 %11, 2
  %tobool13.not.i.i = icmp eq i8 %12, 0
  br i1 %tobool13.not.i.i, label %lor.rhs.i.i, label %sdhci_update_irq.exit

lor.rhs.i.i:                                      ; preds = %land.lhs.true.i.i, %lor.lhs.false6.i.i
  %13 = and i16 %6, 128
  %tobool17.not.i.i = icmp eq i16 %13, 0
  br i1 %tobool17.not.i.i, label %sdhci_update_irq.exit, label %land.rhs.i.i

land.rhs.i.i:                                     ; preds = %lor.rhs.i.i
  %wakcon18.i.i = getelementptr inbounds nuw i8, ptr %opaque, i64 3183
  %14 = load i8, ptr %wakcon18.i.i, align 1
  %15 = lshr i8 %14, 2
  %.lobit.i.i = and i8 %15, 1
  %16 = zext nneg i8 %.lobit.i.i to i32
  br label %sdhci_update_irq.exit

sdhci_update_irq.exit:                            ; preds = %if.end, %lor.lhs.false.i.i, %land.lhs.true.i.i, %lor.rhs.i.i, %land.rhs.i.i
  %conv22.i.i = phi i32 [ 1, %land.lhs.true.i.i ], [ 1, %lor.lhs.false.i.i ], [ 1, %if.end ], [ 0, %lor.rhs.i.i ], [ %16, %land.rhs.i.i ]
  %irq.i = getelementptr inbounds nuw i8, ptr %opaque, i64 3136
  %17 = load ptr, ptr %irq.i, align 16
  tail call void @qemu_set_irq(ptr noundef %17, i32 noundef %conv22.i.i) #12
  br label %if.end9

if.end9:                                          ; preds = %sdhci_update_irq.exit, %if.then
  ret void
}